; ModuleID = '20/257.c'
source_filename = "20/257.c"
target datalayout = "e-m:e-p270:32:32-p271:32:32-p272:64:64-i64:64-f80:128-n8:16:32:64-S128"
target triple = "x86_64-pc-linux-gnu"

@.str = private unnamed_addr constant [3 x i8] c"%s\00", align 1
@.str.1 = private unnamed_addr constant [3 x i8] c"%c\00", align 1
@.str.2 = private unnamed_addr constant [2 x i8] c"\0A\00", align 1

; Function Attrs: noinline nounwind uwtable
define dso_local void @main() #0 {
  %1 = alloca [100 x [10 x i8]], align 16
  %2 = alloca [100 x [3 x i8]], align 16
  %3 = alloca [100 x [13 x i8]], align 16
  %4 = alloca i8*, align 8
  %5 = alloca i32, align 4
  %6 = alloca i32, align 4
  %7 = alloca i32, align 4
  %8 = alloca i32, align 4
  %9 = bitcast [100 x [10 x i8]]* %1 to i8*
  call void @llvm.memset.p0i8.i64(i8* align 16 %9, i8 0, i64 1000, i1 false)
  %10 = bitcast [100 x [3 x i8]]* %2 to i8*
  call void @llvm.memset.p0i8.i64(i8* align 16 %10, i8 0, i64 300, i1 false)
  %11 = bitcast [100 x [13 x i8]]* %3 to i8*
  call void @llvm.memset.p0i8.i64(i8* align 16 %11, i8 0, i64 1300, i1 false)
  store i32 0, i32* %5, align 4
  br label %12

12:                                               ; preds = %25, %0
  %13 = load i32, i32* %5, align 4
  %14 = sext i32 %13 to i64
  %15 = getelementptr inbounds [100 x [10 x i8]], [100 x [10 x i8]]* %1, i64 0, i64 %14
  %16 = getelementptr inbounds [10 x i8], [10 x i8]* %15, i64 0, i64 0
  %17 = call i32 (i8*, ...) @__isoc99_scanf(i8* getelementptr inbounds ([3 x i8], [3 x i8]* @.str, i64 0, i64 0), i8* %16)
  %18 = icmp ne i32 %17, -1
  br i1 %18, label %19, label %28

19:                                               ; preds = %12
  %20 = load i32, i32* %5, align 4
  %21 = sext i32 %20 to i64
  %22 = getelementptr inbounds [100 x [3 x i8]], [100 x [3 x i8]]* %2, i64 0, i64 %21
  %23 = getelementptr inbounds [3 x i8], [3 x i8]* %22, i64 0, i64 0
  %24 = call i32 (i8*, ...) @__isoc99_scanf(i8* getelementptr inbounds ([3 x i8], [3 x i8]* @.str, i64 0, i64 0), i8* %23)
  br label %25

25:                                               ; preds = %19
  %26 = load i32, i32* %5, align 4
  %27 = add nsw i32 %26, 1
  store i32 %27, i32* %5, align 4
  br label %12

28:                                               ; preds = %12
  store i32 0, i32* %6, align 4
  store i32 0, i32* %8, align 4
  br label %29

29:                                               ; preds = %132, %28
  %30 = load i32, i32* %6, align 4
  %31 = load i32, i32* %5, align 4
  %32 = icmp slt i32 %30, %31
  br i1 %32, label %33, label %135

33:                                               ; preds = %29
  %34 = load i32, i32* %6, align 4
  %35 = sext i32 %34 to i64
  %36 = getelementptr inbounds [100 x [10 x i8]], [100 x [10 x i8]]* %1, i64 0, i64 %35
  %37 = getelementptr inbounds [10 x i8], [10 x i8]* %36, i64 0, i64 0
  store i8* %37, i8** %4, align 8
  store i32 0, i32* %8, align 4
  store i32 1, i32* %7, align 4
  br label %38

38:                                               ; preds = %63, %33
  %39 = load i8*, i8** %4, align 8
  %40 = load i32, i32* %7, align 4
  %41 = sext i32 %40 to i64
  %42 = getelementptr inbounds i8, i8* %39, i64 %41
  %43 = load i8, i8* %42, align 1
  %44 = sext i8 %43 to i32
  %45 = icmp ne i32 %44, 0
  br i1 %45, label %46, label %66

46:                                               ; preds = %38
  %47 = load i8*, i8** %4, align 8
  %48 = load i32, i32* %8, align 4
  %49 = sext i32 %48 to i64
  %50 = getelementptr inbounds i8, i8* %47, i64 %49
  %51 = load i8, i8* %50, align 1
  %52 = sext i8 %51 to i32
  %53 = load i8*, i8** %4, align 8
  %54 = load i32, i32* %7, align 4
  %55 = sext i32 %54 to i64
  %56 = getelementptr inbounds i8, i8* %53, i64 %55
  %57 = load i8, i8* %56, align 1
  %58 = sext i8 %57 to i32
  %59 = icmp slt i32 %52, %58
  br i1 %59, label %60, label %62

60:                                               ; preds = %46
  %61 = load i32, i32* %7, align 4
  store i32 %61, i32* %8, align 4
  br label %62

62:                                               ; preds = %60, %46
  br label %63

63:                                               ; preds = %62
  %64 = load i32, i32* %7, align 4
  %65 = add nsw i32 %64, 1
  store i32 %65, i32* %7, align 4
  br label %38

66:                                               ; preds = %38
  store i32 0, i32* %7, align 4
  br label %67

67:                                               ; preds = %80, %66
  %68 = load i32, i32* %7, align 4
  %69 = load i32, i32* %8, align 4
  %70 = icmp sle i32 %68, %69
  br i1 %70, label %71, label %85

71:                                               ; preds = %67
  %72 = load i8*, i8** %4, align 8
  %73 = load i8, i8* %72, align 1
  %74 = load i32, i32* %6, align 4
  %75 = sext i32 %74 to i64
  %76 = getelementptr inbounds [100 x [13 x i8]], [100 x [13 x i8]]* %3, i64 0, i64 %75
  %77 = load i32, i32* %7, align 4
  %78 = sext i32 %77 to i64
  %79 = getelementptr inbounds [13 x i8], [13 x i8]* %76, i64 0, i64 %78
  store i8 %73, i8* %79, align 1
  br label %80

80:                                               ; preds = %71
  %81 = load i32, i32* %7, align 4
  %82 = add nsw i32 %81, 1
  store i32 %82, i32* %7, align 4
  %83 = load i8*, i8** %4, align 8
  %84 = getelementptr inbounds i8, i8* %83, i32 1
  store i8* %84, i8** %4, align 8
  br label %67

85:                                               ; preds = %67
  br label %86

86:                                               ; preds = %108, %85
  %87 = load i32, i32* %7, align 4
  %88 = load i32, i32* %8, align 4
  %89 = add nsw i32 %88, 3
  %90 = icmp sle i32 %87, %89
  br i1 %90, label %91, label %111

91:                                               ; preds = %86
  %92 = load i32, i32* %6, align 4
  %93 = sext i32 %92 to i64
  %94 = getelementptr inbounds [100 x [3 x i8]], [100 x [3 x i8]]* %2, i64 0, i64 %93
  %95 = load i32, i32* %7, align 4
  %96 = load i32, i32* %8, align 4
  %97 = sub nsw i32 %95, %96
  %98 = sub nsw i32 %97, 1
  %99 = sext i32 %98 to i64
  %100 = getelementptr inbounds [3 x i8], [3 x i8]* %94, i64 0, i64 %99
  %101 = load i8, i8* %100, align 1
  %102 = load i32, i32* %6, align 4
  %103 = sext i32 %102 to i64
  %104 = getelementptr inbounds [100 x [13 x i8]], [100 x [13 x i8]]* %3, i64 0, i64 %103
  %105 = load i32, i32* %7, align 4
  %106 = sext i32 %105 to i64
  %107 = getelementptr inbounds [13 x i8], [13 x i8]* %104, i64 0, i64 %106
  store i8 %101, i8* %107, align 1
  br label %108

108:                                              ; preds = %91
  %109 = load i32, i32* %7, align 4
  %110 = add nsw i32 %109, 1
  store i32 %110, i32* %7, align 4
  br label %86

111:                                              ; preds = %86
  br label %112

112:                                              ; preds = %126, %111
  %113 = load i8*, i8** %4, align 8
  %114 = load i8, i8* %113, align 1
  %115 = sext i8 %114 to i32
  %116 = icmp ne i32 %115, 0
  br i1 %116, label %117, label %131

117:                                              ; preds = %112
  %118 = load i8*, i8** %4, align 8
  %119 = load i8, i8* %118, align 1
  %120 = load i32, i32* %6, align 4
  %121 = sext i32 %120 to i64
  %122 = getelementptr inbounds [100 x [13 x i8]], [100 x [13 x i8]]* %3, i64 0, i64 %121
  %123 = load i32, i32* %7, align 4
  %124 = sext i32 %123 to i64
  %125 = getelementptr inbounds [13 x i8], [13 x i8]* %122, i64 0, i64 %124
  store i8 %119, i8* %125, align 1
  br label %126

126:                                              ; preds = %117
  %127 = load i8*, i8** %4, align 8
  %128 = getelementptr inbounds i8, i8* %127, i32 1
  store i8* %128, i8** %4, align 8
  %129 = load i32, i32* %7, align 4
  %130 = add nsw i32 %129, 1
  store i32 %130, i32* %7, align 4
  br label %112

131:                                              ; preds = %112
  br label %132

132:                                              ; preds = %131
  %133 = load i32, i32* %6, align 4
  %134 = add nsw i32 %133, 1
  store i32 %134, i32* %6, align 4
  br label %29

135:                                              ; preds = %29
  store i32 0, i32* %6, align 4
  br label %136

136:                                              ; preds = %160, %135
  %137 = load i32, i32* %6, align 4
  %138 = load i32, i32* %5, align 4
  %139 = icmp slt i32 %137, %138
  br i1 %139, label %140, label %163

140:                                              ; preds = %136
  %141 = load i32, i32* %6, align 4
  %142 = sext i32 %141 to i64
  %143 = getelementptr inbounds [100 x [13 x i8]], [100 x [13 x i8]]* %3, i64 0, i64 %142
  %144 = getelementptr inbounds [13 x i8], [13 x i8]* %143, i64 0, i64 0
  store i8* %144, i8** %4, align 8
  br label %145

145:                                              ; preds = %155, %140
  %146 = load i8*, i8** %4, align 8
  %147 = load i8, i8* %146, align 1
  %148 = sext i8 %147 to i32
  %149 = icmp ne i32 %148, 0
  br i1 %149, label %150, label %158

150:                                              ; preds = %145
  %151 = load i8*, i8** %4, align 8
  %152 = load i8, i8* %151, align 1
  %153 = sext i8 %152 to i32
  %154 = call i32 (i8*, ...) @printf(i8* getelementptr inbounds ([3 x i8], [3 x i8]* @.str.1, i64 0, i64 0), i32 %153)
  br label %155

155:                                              ; preds = %150
  %156 = load i8*, i8** %4, align 8
  %157 = getelementptr inbounds i8, i8* %156, i32 1
  store i8* %157, i8** %4, align 8
  br label %145

158:                                              ; preds = %145
  %159 = call i32 (i8*, ...) @printf(i8* getelementptr inbounds ([2 x i8], [2 x i8]* @.str.2, i64 0, i64 0))
  br label %160

160:                                              ; preds = %158
  %161 = load i32, i32* %6, align 4
  %162 = add nsw i32 %161, 1
  store i32 %162, i32* %6, align 4
  br label %136

163:                                              ; preds = %136
  ret void
}

; Function Attrs: argmemonly nounwind willreturn
declare void @llvm.memset.p0i8.i64(i8* nocapture writeonly, i8, i64, i1 immarg) #1

declare dso_local i32 @__isoc99_scanf(i8*, ...) #2

declare dso_local i32 @printf(i8*, ...) #2


!llvm.module.flags = !{!0}
!llvm.ident = !{!1}

!0 = !{i32 1, !"wchar_size", i32 4}
!1 = !{!"clang version 10.0.0-4ubuntu1 "}
